; ModuleID = '14/1120.c'
source_filename = "14/1120.c"
target datalayout = "e-m:e-p270:32:32-p271:32:32-p272:64:64-i64:64-f80:128-n8:16:32:64-S128"
target triple = "x86_64-pc-linux-gnu"

%struct.student = type { i32, i32, i32, i32 }

@.str = private unnamed_addr constant [3 x i8] c"%d\00", align 1
@.str.1 = private unnamed_addr constant [7 x i8] c"%d%d%d\00", align 1
@.str.2 = private unnamed_addr constant [7 x i8] c"%d %d\0A\00", align 1

; Function Attrs: noinline nounwind uwtable
define dso_local i32 @main() #0 {
  %1 = alloca i32, align 4
  %2 = alloca i32, align 4
  %3 = alloca i32, align 4
  %4 = alloca %struct.student*, align 8
  %5 = alloca i32, align 4
  %6 = alloca i32, align 4
  %7 = alloca i32, align 4
  store i32 0, i32* %1, align 4
  %8 = call i32 (i8*, ...) @__isoc99_scanf(i8* getelementptr inbounds ([3 x i8], [3 x i8]* @.str, i64 0, i64 0), i32* %2)
  %9 = load i32, i32* %2, align 4
  %10 = sext i32 %9 to i64
  %11 = mul i64 %10, 4
  %12 = mul i64 %11, 4
  %13 = call noalias i8* @malloc(i64 %12) #3
  %14 = bitcast i8* %13 to %struct.student*
  store %struct.student* %14, %struct.student** %4, align 8
  store i32 0, i32* %3, align 4
  br label %15

15:                                               ; preds = %54, %0
  %16 = load i32, i32* %3, align 4
  %17 = load i32, i32* %2, align 4
  %18 = icmp slt i32 %16, %17
  br i1 %18, label %19, label %57

19:                                               ; preds = %15
  %20 = load %struct.student*, %struct.student** %4, align 8
  %21 = load i32, i32* %3, align 4
  %22 = sext i32 %21 to i64
  %23 = getelementptr inbounds %struct.student, %struct.student* %20, i64 %22
  %24 = getelementptr inbounds %struct.student, %struct.student* %23, i32 0, i32 0
  %25 = load %struct.student*, %struct.student** %4, align 8
  %26 = load i32, i32* %3, align 4
  %27 = sext i32 %26 to i64
  %28 = getelementptr inbounds %struct.student, %struct.student* %25, i64 %27
  %29 = getelementptr inbounds %struct.student, %struct.student* %28, i32 0, i32 1
  %30 = load %struct.student*, %struct.student** %4, align 8
  %31 = load i32, i32* %3, align 4
  %32 = sext i32 %31 to i64
  %33 = getelementptr inbounds %struct.student, %struct.student* %30, i64 %32
  %34 = getelementptr inbounds %struct.student, %struct.student* %33, i32 0, i32 2
  %35 = call i32 (i8*, ...) @__isoc99_scanf(i8* getelementptr inbounds ([7 x i8], [7 x i8]* @.str.1, i64 0, i64 0), i32* %24, i32* %29, i32* %34)
  %36 = load %struct.student*, %struct.student** %4, align 8
  %37 = load i32, i32* %3, align 4
  %38 = sext i32 %37 to i64
  %39 = getelementptr inbounds %struct.student, %struct.student* %36, i64 %38
  %40 = getelementptr inbounds %struct.student, %struct.student* %39, i32 0, i32 1
  %41 = load i32, i32* %40, align 4
  %42 = load %struct.student*, %struct.student** %4, align 8
  %43 = load i32, i32* %3, align 4
  %44 = sext i32 %43 to i64
  %45 = getelementptr inbounds %struct.student, %struct.student* %42, i64 %44
  %46 = getelementptr inbounds %struct.student, %struct.student* %45, i32 0, i32 2
  %47 = load i32, i32* %46, align 4
  %48 = add nsw i32 %41, %47
  %49 = load %struct.student*, %struct.student** %4, align 8
  %50 = load i32, i32* %3, align 4
  %51 = sext i32 %50 to i64
  %52 = getelementptr inbounds %struct.student, %struct.student* %49, i64 %51
  %53 = getelementptr inbounds %struct.student, %struct.student* %52, i32 0, i32 3
  store i32 %48, i32* %53, align 4
  br label %54

54:                                               ; preds = %19
  %55 = load i32, i32* %3, align 4
  %56 = add nsw i32 %55, 1
  store i32 %56, i32* %3, align 4
  br label %15

57:                                               ; preds = %15
  store i32 1, i32* %5, align 4
  br label %58

58:                                               ; preds = %139, %57
  %59 = load i32, i32* %5, align 4
  %60 = icmp slt i32 %59, 4
  br i1 %60, label %61, label %142

61:                                               ; preds = %58
  store i32 0, i32* %3, align 4
  br label %62

62:                                               ; preds = %135, %61
  %63 = load i32, i32* %3, align 4
  %64 = load i32, i32* %2, align 4
  %65 = load i32, i32* %5, align 4
  %66 = sub nsw i32 %64, %65
  %67 = icmp slt i32 %63, %66
  br i1 %67, label %68, label %138

68:                                               ; preds = %62
  %69 = load %struct.student*, %struct.student** %4, align 8
  %70 = load i32, i32* %3, align 4
  %71 = sext i32 %70 to i64
  %72 = getelementptr inbounds %struct.student, %struct.student* %69, i64 %71
  %73 = getelementptr inbounds %struct.student, %struct.student* %72, i32 0, i32 3
  %74 = load i32, i32* %73, align 4
  %75 = load %struct.student*, %struct.student** %4, align 8
  %76 = load i32, i32* %3, align 4
  %77 = add nsw i32 %76, 1
  %78 = sext i32 %77 to i64
  %79 = getelementptr inbounds %struct.student, %struct.student* %75, i64 %78
  %80 = getelementptr inbounds %struct.student, %struct.student* %79, i32 0, i32 3
  %81 = load i32, i32* %80, align 4
  %82 = icmp sge i32 %74, %81
  br i1 %82, label %83, label %134

83:                                               ; preds = %68
  %84 = load %struct.student*, %struct.student** %4, align 8
  %85 = load i32, i32* %3, align 4
  %86 = add nsw i32 %85, 1
  %87 = sext i32 %86 to i64
  %88 = getelementptr inbounds %struct.student, %struct.student* %84, i64 %87
  %89 = getelementptr inbounds %struct.student, %struct.student* %88, i32 0, i32 3
  %90 = load i32, i32* %89, align 4
  store i32 %90, i32* %6, align 4
  %91 = load %struct.student*, %struct.student** %4, align 8
  %92 = load i32, i32* %3, align 4
  %93 = add nsw i32 %92, 1
  %94 = sext i32 %93 to i64
  %95 = getelementptr inbounds %struct.student, %struct.student* %91, i64 %94
  %96 = getelementptr inbounds %struct.student, %struct.student* %95, i32 0, i32 0
  %97 = load i32, i32* %96, align 4
  store i32 %97, i32* %7, align 4
  %98 = load %struct.student*, %struct.student** %4, align 8
  %99 = load i32, i32* %3, align 4
  %100 = sext i32 %99 to i64
  %101 = getelementptr inbounds %struct.student, %struct.student* %98, i64 %100
  %102 = getelementptr inbounds %struct.student, %struct.student* %101, i32 0, i32 3
  %103 = load i32, i32* %102, align 4
  %104 = load %struct.student*, %struct.student** %4, align 8
  %105 = load i32, i32* %3, align 4
  %106 = add nsw i32 %105, 1
  %107 = sext i32 %106 to i64
  %108 = getelementptr inbounds %struct.student, %struct.student* %104, i64 %107
  %109 = getelementptr inbounds %struct.student, %struct.student* %108, i32 0, i32 3
  store i32 %103, i32* %109, align 4
  %110 = load %struct.student*, %struct.student** %4, align 8
  %111 = load i32, i32* %3, align 4
  %112 = sext i32 %111 to i64
  %113 = getelementptr inbounds %struct.student, %struct.student* %110, i64 %112
  %114 = getelementptr inbounds %struct.student, %struct.student* %113, i32 0, i32 0
  %115 = load i32, i32* %114, align 4
  %116 = load %struct.student*, %struct.student** %4, align 8
  %117 = load i32, i32* %3, align 4
  %118 = add nsw i32 %117, 1
  %119 = sext i32 %118 to i64
  %120 = getelementptr inbounds %struct.student, %struct.student* %116, i64 %119
  %121 = getelementptr inbounds %struct.student, %struct.student* %120, i32 0, i32 0
  store i32 %115, i32* %121, align 4
  %122 = load i32, i32* %6, align 4
  %123 = load %struct.student*, %struct.student** %4, align 8
  %124 = load i32, i32* %3, align 4
  %125 = sext i32 %124 to i64
  %126 = getelementptr inbounds %struct.student, %struct.student* %123, i64 %125
  %127 = getelementptr inbounds %struct.student, %struct.student* %126, i32 0, i32 3
  store i32 %122, i32* %127, align 4
  %128 = load i32, i32* %7, align 4
  %129 = load %struct.student*, %struct.student** %4, align 8
  %130 = load i32, i32* %3, align 4
  %131 = sext i32 %130 to i64
  %132 = getelementptr inbounds %struct.student, %struct.student* %129, i64 %131
  %133 = getelementptr inbounds %struct.student, %struct.student* %132, i32 0, i32 0
  store i32 %128, i32* %133, align 4
  br label %134

134:                                              ; preds = %83, %68
  br label %135

135:                                              ; preds = %134
  %136 = load i32, i32* %3, align 4
  %137 = add nsw i32 %136, 1
  store i32 %137, i32* %3, align 4
  br label %62

138:                                              ; preds = %62
  br label %139

139:                                              ; preds = %138
  %140 = load i32, i32* %5, align 4
  %141 = add nsw i32 %140, 1
  store i32 %141, i32* %5, align 4
  br label %58

142:                                              ; preds = %58
  %143 = load %struct.student*, %struct.student** %4, align 8
  %144 = load i32, i32* %2, align 4
  %145 = sub nsw i32 %144, 1
  %146 = sext i32 %145 to i64
  %147 = getelementptr inbounds %struct.student, %struct.student* %143, i64 %146
  %148 = getelementptr inbounds %struct.student, %struct.student* %147, i32 0, i32 0
  %149 = load i32, i32* %148, align 4
  %150 = load %struct.student*, %struct.student** %4, align 8
  %151 = load i32, i32* %2, align 4
  %152 = sub nsw i32 %151, 1
  %153 = sext i32 %152 to i64
  %154 = getelementptr inbounds %struct.student, %struct.student* %150, i64 %153
  %155 = getelementptr inbounds %struct.student, %struct.student* %154, i32 0, i32 3
  %156 = load i32, i32* %155, align 4
  %157 = call i32 (i8*, ...) @printf(i8* getelementptr inbounds ([7 x i8], [7 x i8]* @.str.2, i64 0, i64 0), i32 %149, i32 %156)
  %158 = load %struct.student*, %struct.student** %4, align 8
  %159 = load i32, i32* %2, align 4
  %160 = sub nsw i32 %159, 2
  %161 = sext i32 %160 to i64
  %162 = getelementptr inbounds %struct.student, %struct.student* %158, i64 %161
  %163 = getelementptr inbounds %struct.student, %struct.student* %162, i32 0, i32 0
  %164 = load i32, i32* %163, align 4
  %165 = load %struct.student*, %struct.student** %4, align 8
  %166 = load i32, i32* %2, align 4
  %167 = sub nsw i32 %166, 2
  %168 = sext i32 %167 to i64
  %169 = getelementptr inbounds %struct.student, %struct.student* %165, i64 %168
  %170 = getelementptr inbounds %struct.student, %struct.student* %169, i32 0, i32 3
  %171 = load i32, i32* %170, align 4
  %172 = call i32 (i8*, ...) @printf(i8* getelementptr inbounds ([7 x i8], [7 x i8]* @.str.2, i64 0, i64 0), i32 %164, i32 %171)
  %173 = load %struct.student*, %struct.student** %4, align 8
  %174 = load i32, i32* %2, align 4
  %175 = sub nsw i32 %174, 3
  %176 = sext i32 %175 to i64
  %177 = getelementptr inbounds %struct.student, %struct.student* %173, i64 %176
  %178 = getelementptr inbounds %struct.student, %struct.student* %177, i32 0, i32 0
  %179 = load i32, i32* %178, align 4
  %180 = load %struct.student*, %struct.student** %4, align 8
  %181 = load i32, i32* %2, align 4
  %182 = sub nsw i32 %181, 3
  %183 = sext i32 %182 to i64
  %184 = getelementptr inbounds %struct.student, %struct.student* %180, i64 %183
  %185 = getelementptr inbounds %struct.student, %struct.student* %184, i32 0, i32 3
  %186 = load i32, i32* %185, align 4
  %187 = call i32 (i8*, ...) @printf(i8* getelementptr inbounds ([7 x i8], [7 x i8]* @.str.2, i64 0, i64 0), i32 %179, i32 %186)
  %188 = load %struct.student*, %struct.student** %4, align 8
  %189 = bitcast %struct.student* %188 to i8*
  call void @free(i8* %189) #3
  ret i32 0
}

declare dso_local i32 @__isoc99_scanf(i8*, ...) #1

; Function Attrs: nounwind
declare dso_local noalias i8* @malloc(i64) #2

declare dso_local i32 @printf(i8*, ...) #1

; Function Attrs: nounwind
declare dso_local void @free(i8*) #2


!llvm.module.flags = !{!0}
!llvm.ident = !{!1}

!0 = !{i32 1, !"wchar_size", i32 4}
!1 = !{!"clang version 10.0.0-4ubuntu1 "}
